; Function Attrs: nounwind uwtable
define internal ptr @_weakref_getweakrefs(ptr readnone captures(none) %0, ptr noundef %1) #0 {
  %3 = getelementptr i8, ptr %1, i64 8
  %.val = load ptr, ptr %3, align 8, !tbaa !9
  %4 = getelementptr i8, ptr %.val, i64 208
  %.val27 = load i64, ptr %4, align 8, !tbaa !22
  %.not34 = icmp eq i64 %.val27, 0
  %5 = tail call ptr @PyList_New(i64 noundef 0) #3
  br i1 %.not34, label %Py_DECREF.exit22.thread, label %6

6:                                                ; preds = %2
  %7 = icmp eq ptr %5, null
  br i1 %7, label %Py_DECREF.exit22.thread, label %8

8:                                                ; preds = %6
  %.val9.i = load ptr, ptr %3, align 8, !tbaa !9
  %9 = getelementptr i8, ptr %.val9.i, i64 168
  %.val9.val.i = load i64, ptr %9, align 8, !tbaa !12
  %10 = and i64 %.val9.val.i, 2147483648
  %.not10.i = icmp eq i64 %10, 0
  br i1 %.not10.i, label %22, label %11

11:                                               ; preds = %8
  %12 = getelementptr inbounds nuw i8, ptr %1, i64 168
  %13 = load i64, ptr %12, align 8, !tbaa !12
  %14 = and i64 %13, 2
  %.not8.i = icmp eq i64 %14, 0
  br i1 %.not8.i, label %22, label %15

15:                                               ; preds = %11
  %16 = tail call align 8 ptr @llvm.threadlocal.address.p0(ptr align 8 @_Py_tss_tstate)
  %17 = load ptr, ptr %16, align 8, !tbaa !23
  %18 = getelementptr inbounds nuw i8, ptr %17, i64 16
  %19 = load ptr, ptr %18, align 8, !tbaa !25
  %20 = tail call ptr @_PyStaticType_GetState(ptr noundef %19, ptr noundef nonnull %1) #3
  %21 = getelementptr inbounds nuw i8, ptr %20, i64 40
  br label %_PyObject_GET_WEAKREFS_LISTPTR.exit

22:                                               ; preds = %11, %8
  %23 = getelementptr inbounds nuw i8, ptr %.val9.i, i64 208
  %24 = load i64, ptr %23, align 8, !tbaa !22
  %25 = getelementptr i8, ptr %1, i64 %24
  br label %_PyObject_GET_WEAKREFS_LISTPTR.exit

_PyObject_GET_WEAKREFS_LISTPTR.exit:              ; preds = %15, %22
  %.0.i = phi ptr [ %21, %15 ], [ %25, %22 ]
  %.01436 = load ptr, ptr %.0.i, align 8, !tbaa !34
  %.not1837 = icmp eq ptr %.01436, null
  br i1 %.not1837, label %Py_DECREF.exit22.thread, label %.lr.ph

.lr.ph:                                           ; preds = %_PyObject_GET_WEAKREFS_LISTPTR.exit, %Py_DECREF.exit22
  %.01438 = phi ptr [ %.014, %Py_DECREF.exit22 ], [ %.01436, %_PyObject_GET_WEAKREFS_LISTPTR.exit ]
  %.val.i = load i32, ptr %.01438, align 8, !tbaa !36
  %.not.i28 = icmp eq i32 %.val.i, 0
  br i1 %.not.i28, label %Py_DECREF.exit22, label %26

26:                                               ; preds = %.lr.ph
  %27 = icmp slt i32 %.val.i, 0
  br i1 %27, label %30, label %28

28:                                               ; preds = %26
  %29 = add nuw i32 %.val.i, 1
  store i32 %29, ptr %.01438, align 8, !tbaa !36
  br label %30

30:                                               ; preds = %26, %28
  %31 = tail call i32 @PyList_Append(ptr noundef nonnull %5, ptr noundef nonnull %.01438) #3
  %.not20 = icmp eq i32 %31, 0
  %32 = load i32, ptr %.01438, align 8, !tbaa !36
  %.not.i23 = icmp sgt i32 %32, -1
  br i1 %.not20, label %43, label %33

33:                                               ; preds = %30
  br i1 %.not.i23, label %34, label %Py_DECREF.exit

34:                                               ; preds = %33
  %35 = add nsw i32 %32, -1
  store i32 %35, ptr %.01438, align 8, !tbaa !36
  %36 = icmp eq i32 %35, 0
  br i1 %36, label %37, label %Py_DECREF.exit

37:                                               ; preds = %34
  tail call void @_Py_Dealloc(ptr noundef nonnull %.01438) #3
  br label %Py_DECREF.exit

Py_DECREF.exit:                                   ; preds = %33, %34, %37
  %38 = load i32, ptr %5, align 8, !tbaa !36
  %.not.i21 = icmp sgt i32 %38, -1
  br i1 %.not.i21, label %39, label %Py_DECREF.exit22.thread

39:                                               ; preds = %Py_DECREF.exit
  %40 = add nsw i32 %38, -1
  store i32 %40, ptr %5, align 8, !tbaa !36
  %41 = icmp eq i32 %40, 0
  br i1 %41, label %42, label %Py_DECREF.exit22.thread

42:                                               ; preds = %39
  tail call void @_Py_Dealloc(ptr noundef nonnull %5) #3
  br label %Py_DECREF.exit22.thread

43:                                               ; preds = %30
  br i1 %.not.i23, label %44, label %Py_DECREF.exit22

44:                                               ; preds = %43
  %45 = add nsw i32 %32, -1
  store i32 %45, ptr %.01438, align 8, !tbaa !36
  %46 = icmp eq i32 %45, 0
  br i1 %46, label %47, label %Py_DECREF.exit22

47:                                               ; preds = %44
  tail call void @_Py_Dealloc(ptr noundef nonnull %.01438) #3
  br label %Py_DECREF.exit22

Py_DECREF.exit22:                                 ; preds = %.lr.ph, %43, %44, %47
  %48 = getelementptr inbounds nuw i8, ptr %.01438, i64 48
  %.014 = load ptr, ptr %48, align 8, !tbaa !34
  %.not18 = icmp eq ptr %.014, null
  br i1 %.not18, label %Py_DECREF.exit22.thread, label %.lr.ph, !llvm.loop !37

Py_DECREF.exit22.thread:                          ; preds = %Py_DECREF.exit22, %2, %_PyObject_GET_WEAKREFS_LISTPTR.exit, %42, %39, %Py_DECREF.exit, %6
  %.0 = phi ptr [ null, %6 ], [ null, %Py_DECREF.exit ], [ null, %39 ], [ null, %42 ], [ %5, %_PyObject_GET_WEAKREFS_LISTPTR.exit ], [ %5, %2 ], [ %5, %Py_DECREF.exit22 ]
  ret ptr %.0
}